target datalayout = "e-m:e-p270:32:32-p271:32:32-p272:64:64-i64:64-i128:128-f80:128-n8:16:32:64-S128"
target triple = "x86_64-unknown-linux-gnu"

%"class.grpc_core::PartySyncUsingAtomics" = type { %"struct.std::atomic" }
%"struct.std::atomic" = type { %"struct.std::__atomic_base" }
%"struct.std::__atomic_base" = type { i64 }

; Function Attrs: noreturn nounwind uwtable
define linkonce_odr hidden void @__clang_call_terminate(ptr noundef %0) #8 comdat {
  %2 = call ptr @__cxa_begin_catch(ptr %0) #3
  call void @_ZSt9terminatev() #16
  unreachable
}

; Function Attrs: mustprogress nounwind uwtable
define linkonce_odr noundef i32 @_ZStanSt12memory_orderSt23__memory_order_modifier(i32 noundef %__m, i32 noundef %__mod) #4 comdat {
entry:
  %__m.addr = alloca i32, align 4
  %__mod.addr = alloca i32, align 4
  store i32 %__m, ptr %__m.addr, align 4
  store i32 %__mod, ptr %__mod.addr, align 4
  %0 = load i32, ptr %__m.addr, align 4
  %1 = load i32, ptr %__mod.addr, align 4
  %and = and i32 %0, %1
  ret i32 %and
}

; Function Attrs: mustprogress nounwind uwtable
define noundef zeroext i1 @_ZN9grpc_core21PartySyncUsingAtomics12RefIfNonZeroEv(ptr noundef nonnull align 8 dereferenceable(8) %this) #4 align 2 personality ptr @__gxx_personality_v0 {
entry:
  %this.addr.i4 = alloca ptr, align 8
  %__i1.addr.i = alloca ptr, align 8
  %__i2.addr.i = alloca i64, align 8
  %__m1.addr.i = alloca i32, align 4
  %__m2.addr.i = alloca i32, align 4
  %.atomictmp.i = alloca i64, align 8
  %cmpxchg.bool.i = alloca i8, align 1
  %this.addr.i = alloca ptr, align 8
  %__m.addr.i = alloca i32, align 4
  %__b.i = alloca i32, align 4
  %atomic-temp.i = alloca i64, align 8
  %retval = alloca i1, align 1
  %this.addr = alloca ptr, align 8
  %count = alloca i64, align 8
  store ptr %this, ptr %this.addr, align 8
  %this1 = load ptr, ptr %this.addr, align 8
  %state_ = getelementptr inbounds %"class.grpc_core::PartySyncUsingAtomics", ptr %this1, i32 0, i32 0
  store ptr %state_, ptr %this.addr.i, align 8
  store i32 0, ptr %__m.addr.i, align 4
  %this1.i = load ptr, ptr %this.addr.i, align 8
  %0 = load i32, ptr %__m.addr.i, align 4
  %call.i = invoke noundef i32 @_ZStanSt12memory_orderSt23__memory_order_modifier(i32 noundef %0, i32 noundef 65535)
          to label %invoke.cont.i unwind label %terminate.lpad.i

invoke.cont.i:                                    ; preds = %entry
  store i32 %call.i, ptr %__b.i, align 4
  %1 = load i32, ptr %__m.addr.i, align 4
  switch i32 %1, label %monotonic.i [
    i32 1, label %acquire.i
    i32 2, label %acquire.i
    i32 5, label %seqcst.i
  ]

monotonic.i:                                      ; preds = %invoke.cont.i
  %2 = load atomic i64, ptr %this1.i monotonic, align 8
  store i64 %2, ptr %atomic-temp.i, align 8
  br label %_ZNKSt13__atomic_baseImE4loadESt12memory_order.exit

acquire.i:                                        ; preds = %invoke.cont.i, %invoke.cont.i
  %3 = load atomic i64, ptr %this1.i acquire, align 8
  store i64 %3, ptr %atomic-temp.i, align 8
  br label %_ZNKSt13__atomic_baseImE4loadESt12memory_order.exit

seqcst.i:                                         ; preds = %invoke.cont.i
  %4 = load atomic i64, ptr %this1.i seq_cst, align 8
  store i64 %4, ptr %atomic-temp.i, align 8
  br label %_ZNKSt13__atomic_baseImE4loadESt12memory_order.exit

terminate.lpad.i:                                 ; preds = %entry
  %5 = landingpad { ptr, i32 }
          catch ptr null
  %6 = extractvalue { ptr, i32 } %5, 0
  call void @__clang_call_terminate(ptr %6) #16
  unreachable

_ZNKSt13__atomic_baseImE4loadESt12memory_order.exit: ; preds = %seqcst.i, %acquire.i, %monotonic.i
  %7 = load i64, ptr %atomic-temp.i, align 8
  store i64 %7, ptr %count, align 8
  br label %do.body

do.body:                                          ; preds = %_ZNSt13__atomic_baseImE21compare_exchange_weakERmmSt12memory_orderS2_.exit, %_ZNKSt13__atomic_baseImE4loadESt12memory_order.exit
  %8 = load i64, ptr %count, align 8
  %cmp = icmp eq i64 %8, 0
  br i1 %cmp, label %if.then, label %if.end

if.then:                                          ; preds = %do.body
  store i1 false, ptr %retval, align 1
  br label %return

if.end:                                           ; preds = %do.body
  br label %do.cond

do.cond:                                          ; preds = %if.end
  %state_2 = getelementptr inbounds %"class.grpc_core::PartySyncUsingAtomics", ptr %this1, i32 0, i32 0
  %9 = load i64, ptr %count, align 8
  %add = add i64 %9, 1099511627776
  store ptr %state_2, ptr %this.addr.i4, align 8
  store ptr %count, ptr %__i1.addr.i, align 8
  store i64 %add, ptr %__i2.addr.i, align 8
  store i32 4, ptr %__m1.addr.i, align 4
  store i32 0, ptr %__m2.addr.i, align 4
  %this1.i5 = load ptr, ptr %this.addr.i4, align 8
  %10 = load i32, ptr %__m1.addr.i, align 4
  %11 = load ptr, ptr %__i1.addr.i, align 8
  %12 = load i64, ptr %__i2.addr.i, align 8
  store i64 %12, ptr %.atomictmp.i, align 8
  %13 = load i32, ptr %__m2.addr.i, align 4
  switch i32 %10, label %monotonic.i8 [
    i32 1, label %acquire.i7
    i32 2, label %acquire.i7
    i32 3, label %release.i
    i32 4, label %acqrel.i
    i32 5, label %seqcst.i6
  ]

monotonic.i8:                                     ; preds = %do.cond
  switch i32 %13, label %monotonic_fail.i [
    i32 1, label %acquire_fail.i
    i32 2, label %acquire_fail.i
    i32 5, label %seqcst_fail.i
  ]

acquire.i7:                                       ; preds = %do.cond, %do.cond
  switch i32 %13, label %monotonic_fail9.i [
    i32 1, label %acquire_fail10.i
    i32 2, label %acquire_fail10.i
    i32 5, label %seqcst_fail11.i
  ]

release.i:                                        ; preds = %do.cond
  switch i32 %13, label %monotonic_fail22.i [
    i32 1, label %acquire_fail23.i
    i32 2, label %acquire_fail23.i
    i32 5, label %seqcst_fail24.i
  ]

acqrel.i:                                         ; preds = %do.cond
  switch i32 %13, label %monotonic_fail35.i [
    i32 1, label %acquire_fail36.i
    i32 2, label %acquire_fail36.i
    i32 5, label %seqcst_fail37.i
  ]

seqcst.i6:                                        ; preds = %do.cond
  switch i32 %13, label %monotonic_fail48.i [
    i32 1, label %acquire_fail49.i
    i32 2, label %acquire_fail49.i
    i32 5, label %seqcst_fail50.i
  ]

monotonic_fail.i:                                 ; preds = %monotonic.i8
  %14 = load i64, ptr %11, align 8
  %15 = load i64, ptr %.atomictmp.i, align 8
  %16 = cmpxchg weak ptr %this1.i5, i64 %14, i64 %15 monotonic monotonic, align 8
  %17 = extractvalue { i64, i1 } %16, 0
  %18 = extractvalue { i64, i1 } %16, 1
  br i1 %18, label %cmpxchg.continue.i, label %cmpxchg.store_expected.i

acquire_fail.i:                                   ; preds = %monotonic.i8, %monotonic.i8
  %19 = load i64, ptr %11, align 8
  %20 = load i64, ptr %.atomictmp.i, align 8
  %21 = cmpxchg weak ptr %this1.i5, i64 %19, i64 %20 monotonic acquire, align 8
  %22 = extractvalue { i64, i1 } %21, 0
  %23 = extractvalue { i64, i1 } %21, 1
  br i1 %23, label %cmpxchg.continue4.i, label %cmpxchg.store_expected3.i

seqcst_fail.i:                                    ; preds = %monotonic.i8
  %24 = load i64, ptr %11, align 8
  %25 = load i64, ptr %.atomictmp.i, align 8
  %26 = cmpxchg weak ptr %this1.i5, i64 %24, i64 %25 monotonic seq_cst, align 8
  %27 = extractvalue { i64, i1 } %26, 0
  %28 = extractvalue { i64, i1 } %26, 1
  br i1 %28, label %cmpxchg.continue7.i, label %cmpxchg.store_expected6.i

atomic.continue2.i:                               ; preds = %cmpxchg.continue7.i, %cmpxchg.continue4.i, %cmpxchg.continue.i
  br label %_ZNSt13__atomic_baseImE21compare_exchange_weakERmmSt12memory_orderS2_.exit

cmpxchg.store_expected.i:                         ; preds = %monotonic_fail.i
  store i64 %17, ptr %11, align 8
  br label %cmpxchg.continue.i

cmpxchg.continue.i:                               ; preds = %cmpxchg.store_expected.i, %monotonic_fail.i
  %frombool.i = zext i1 %18 to i8
  store i8 %frombool.i, ptr %cmpxchg.bool.i, align 1
  br label %atomic.continue2.i

cmpxchg.store_expected3.i:                        ; preds = %acquire_fail.i
  store i64 %22, ptr %11, align 8
  br label %cmpxchg.continue4.i

cmpxchg.continue4.i:                              ; preds = %cmpxchg.store_expected3.i, %acquire_fail.i
  %frombool5.i = zext i1 %23 to i8
  store i8 %frombool5.i, ptr %cmpxchg.bool.i, align 1
  br label %atomic.continue2.i

cmpxchg.store_expected6.i:                        ; preds = %seqcst_fail.i
  store i64 %27, ptr %11, align 8
  br label %cmpxchg.continue7.i

cmpxchg.continue7.i:                              ; preds = %cmpxchg.store_expected6.i, %seqcst_fail.i
  %frombool8.i = zext i1 %28 to i8
  store i8 %frombool8.i, ptr %cmpxchg.bool.i, align 1
  br label %atomic.continue2.i

monotonic_fail9.i:                                ; preds = %acquire.i7
  %29 = load i64, ptr %11, align 8
  %30 = load i64, ptr %.atomictmp.i, align 8
  %31 = cmpxchg weak ptr %this1.i5, i64 %29, i64 %30 acquire monotonic, align 8
  %32 = extractvalue { i64, i1 } %31, 0
  %33 = extractvalue { i64, i1 } %31, 1
  br i1 %33, label %cmpxchg.continue14.i, label %cmpxchg.store_expected13.i

acquire_fail10.i:                                 ; preds = %acquire.i7, %acquire.i7
  %34 = load i64, ptr %11, align 8
  %35 = load i64, ptr %.atomictmp.i, align 8
  %36 = cmpxchg weak ptr %this1.i5, i64 %34, i64 %35 acquire acquire, align 8
  %37 = extractvalue { i64, i1 } %36, 0
  %38 = extractvalue { i64, i1 } %36, 1
  br i1 %38, label %cmpxchg.continue17.i, label %cmpxchg.store_expected16.i

seqcst_fail11.i:                                  ; preds = %acquire.i7
  %39 = load i64, ptr %11, align 8
  %40 = load i64, ptr %.atomictmp.i, align 8
  %41 = cmpxchg weak ptr %this1.i5, i64 %39, i64 %40 acquire seq_cst, align 8
  %42 = extractvalue { i64, i1 } %41, 0
  %43 = extractvalue { i64, i1 } %41, 1
  br i1 %43, label %cmpxchg.continue20.i, label %cmpxchg.store_expected19.i

atomic.continue12.i:                              ; preds = %cmpxchg.continue20.i, %cmpxchg.continue17.i, %cmpxchg.continue14.i
  br label %_ZNSt13__atomic_baseImE21compare_exchange_weakERmmSt12memory_orderS2_.exit

cmpxchg.store_expected13.i:                       ; preds = %monotonic_fail9.i
  store i64 %32, ptr %11, align 8
  br label %cmpxchg.continue14.i

cmpxchg.continue14.i:                             ; preds = %cmpxchg.store_expected13.i, %monotonic_fail9.i
  %frombool15.i = zext i1 %33 to i8
  store i8 %frombool15.i, ptr %cmpxchg.bool.i, align 1
  br label %atomic.continue12.i

cmpxchg.store_expected16.i:                       ; preds = %acquire_fail10.i
  store i64 %37, ptr %11, align 8
  br label %cmpxchg.continue17.i

cmpxchg.continue17.i:                             ; preds = %cmpxchg.store_expected16.i, %acquire_fail10.i
  %frombool18.i = zext i1 %38 to i8
  store i8 %frombool18.i, ptr %cmpxchg.bool.i, align 1
  br label %atomic.continue12.i

cmpxchg.store_expected19.i:                       ; preds = %seqcst_fail11.i
  store i64 %42, ptr %11, align 8
  br label %cmpxchg.continue20.i

cmpxchg.continue20.i:                             ; preds = %cmpxchg.store_expected19.i, %seqcst_fail11.i
  %frombool21.i = zext i1 %43 to i8
  store i8 %frombool21.i, ptr %cmpxchg.bool.i, align 1
  br label %atomic.continue12.i

monotonic_fail22.i:                               ; preds = %release.i
  %44 = load i64, ptr %11, align 8
  %45 = load i64, ptr %.atomictmp.i, align 8
  %46 = cmpxchg weak ptr %this1.i5, i64 %44, i64 %45 release monotonic, align 8
  %47 = extractvalue { i64, i1 } %46, 0
  %48 = extractvalue { i64, i1 } %46, 1
  br i1 %48, label %cmpxchg.continue27.i, label %cmpxchg.store_expected26.i

acquire_fail23.i:                                 ; preds = %release.i, %release.i
  %49 = load i64, ptr %11, align 8
  %50 = load i64, ptr %.atomictmp.i, align 8
  %51 = cmpxchg weak ptr %this1.i5, i64 %49, i64 %50 release acquire, align 8
  %52 = extractvalue { i64, i1 } %51, 0
  %53 = extractvalue { i64, i1 } %51, 1
  br i1 %53, label %cmpxchg.continue30.i, label %cmpxchg.store_expected29.i

seqcst_fail24.i:                                  ; preds = %release.i
  %54 = load i64, ptr %11, align 8
  %55 = load i64, ptr %.atomictmp.i, align 8
  %56 = cmpxchg weak ptr %this1.i5, i64 %54, i64 %55 release seq_cst, align 8
  %57 = extractvalue { i64, i1 } %56, 0
  %58 = extractvalue { i64, i1 } %56, 1
  br i1 %58, label %cmpxchg.continue33.i, label %cmpxchg.store_expected32.i

atomic.continue25.i:                              ; preds = %cmpxchg.continue33.i, %cmpxchg.continue30.i, %cmpxchg.continue27.i
  br label %_ZNSt13__atomic_baseImE21compare_exchange_weakERmmSt12memory_orderS2_.exit

cmpxchg.store_expected26.i:                       ; preds = %monotonic_fail22.i
  store i64 %47, ptr %11, align 8
  br label %cmpxchg.continue27.i

cmpxchg.continue27.i:                             ; preds = %cmpxchg.store_expected26.i, %monotonic_fail22.i
  %frombool28.i = zext i1 %48 to i8
  store i8 %frombool28.i, ptr %cmpxchg.bool.i, align 1
  br label %atomic.continue25.i

cmpxchg.store_expected29.i:                       ; preds = %acquire_fail23.i
  store i64 %52, ptr %11, align 8
  br label %cmpxchg.continue30.i

cmpxchg.continue30.i:                             ; preds = %cmpxchg.store_expected29.i, %acquire_fail23.i
  %frombool31.i = zext i1 %53 to i8
  store i8 %frombool31.i, ptr %cmpxchg.bool.i, align 1
  br label %atomic.continue25.i

cmpxchg.store_expected32.i:                       ; preds = %seqcst_fail24.i
  store i64 %57, ptr %11, align 8
  br label %cmpxchg.continue33.i

cmpxchg.continue33.i:                             ; preds = %cmpxchg.store_expected32.i, %seqcst_fail24.i
  %frombool34.i = zext i1 %58 to i8
  store i8 %frombool34.i, ptr %cmpxchg.bool.i, align 1
  br label %atomic.continue25.i

monotonic_fail35.i:                               ; preds = %acqrel.i
  %59 = load i64, ptr %11, align 8
  %60 = load i64, ptr %.atomictmp.i, align 8
  %61 = cmpxchg weak ptr %this1.i5, i64 %59, i64 %60 acq_rel monotonic, align 8
  %62 = extractvalue { i64, i1 } %61, 0
  %63 = extractvalue { i64, i1 } %61, 1
  br i1 %63, label %cmpxchg.continue40.i, label %cmpxchg.store_expected39.i

acquire_fail36.i:                                 ; preds = %acqrel.i, %acqrel.i
  %64 = load i64, ptr %11, align 8
  %65 = load i64, ptr %.atomictmp.i, align 8
  %66 = cmpxchg weak ptr %this1.i5, i64 %64, i64 %65 acq_rel acquire, align 8
  %67 = extractvalue { i64, i1 } %66, 0
  %68 = extractvalue { i64, i1 } %66, 1
  br i1 %68, label %cmpxchg.continue43.i, label %cmpxchg.store_expected42.i

seqcst_fail37.i:                                  ; preds = %acqrel.i
  %69 = load i64, ptr %11, align 8
  %70 = load i64, ptr %.atomictmp.i, align 8
  %71 = cmpxchg weak ptr %this1.i5, i64 %69, i64 %70 acq_rel seq_cst, align 8
  %72 = extractvalue { i64, i1 } %71, 0
  %73 = extractvalue { i64, i1 } %71, 1
  br i1 %73, label %cmpxchg.continue46.i, label %cmpxchg.store_expected45.i

atomic.continue38.i:                              ; preds = %cmpxchg.continue46.i, %cmpxchg.continue43.i, %cmpxchg.continue40.i
  br label %_ZNSt13__atomic_baseImE21compare_exchange_weakERmmSt12memory_orderS2_.exit

cmpxchg.store_expected39.i:                       ; preds = %monotonic_fail35.i
  store i64 %62, ptr %11, align 8
  br label %cmpxchg.continue40.i

cmpxchg.continue40.i:                             ; preds = %cmpxchg.store_expected39.i, %monotonic_fail35.i
  %frombool41.i = zext i1 %63 to i8
  store i8 %frombool41.i, ptr %cmpxchg.bool.i, align 1
  br label %atomic.continue38.i

cmpxchg.store_expected42.i:                       ; preds = %acquire_fail36.i
  store i64 %67, ptr %11, align 8
  br label %cmpxchg.continue43.i

cmpxchg.continue43.i:                             ; preds = %cmpxchg.store_expected42.i, %acquire_fail36.i
  %frombool44.i = zext i1 %68 to i8
  store i8 %frombool44.i, ptr %cmpxchg.bool.i, align 1
  br label %atomic.continue38.i

cmpxchg.store_expected45.i:                       ; preds = %seqcst_fail37.i
  store i64 %72, ptr %11, align 8
  br label %cmpxchg.continue46.i

cmpxchg.continue46.i:                             ; preds = %cmpxchg.store_expected45.i, %seqcst_fail37.i
  %frombool47.i = zext i1 %73 to i8
  store i8 %frombool47.i, ptr %cmpxchg.bool.i, align 1
  br label %atomic.continue38.i

monotonic_fail48.i:                               ; preds = %seqcst.i6
  %74 = load i64, ptr %11, align 8
  %75 = load i64, ptr %.atomictmp.i, align 8
  %76 = cmpxchg weak ptr %this1.i5, i64 %74, i64 %75 seq_cst monotonic, align 8
  %77 = extractvalue { i64, i1 } %76, 0
  %78 = extractvalue { i64, i1 } %76, 1
  br i1 %78, label %cmpxchg.continue53.i, label %cmpxchg.store_expected52.i

acquire_fail49.i:                                 ; preds = %seqcst.i6, %seqcst.i6
  %79 = load i64, ptr %11, align 8
  %80 = load i64, ptr %.atomictmp.i, align 8
  %81 = cmpxchg weak ptr %this1.i5, i64 %79, i64 %80 seq_cst acquire, align 8
  %82 = extractvalue { i64, i1 } %81, 0
  %83 = extractvalue { i64, i1 } %81, 1
  br i1 %83, label %cmpxchg.continue56.i, label %cmpxchg.store_expected55.i

seqcst_fail50.i:                                  ; preds = %seqcst.i6
  %84 = load i64, ptr %11, align 8
  %85 = load i64, ptr %.atomictmp.i, align 8
  %86 = cmpxchg weak ptr %this1.i5, i64 %84, i64 %85 seq_cst seq_cst, align 8
  %87 = extractvalue { i64, i1 } %86, 0
  %88 = extractvalue { i64, i1 } %86, 1
  br i1 %88, label %cmpxchg.continue59.i, label %cmpxchg.store_expected58.i

atomic.continue51.i:                              ; preds = %cmpxchg.continue59.i, %cmpxchg.continue56.i, %cmpxchg.continue53.i
  br label %_ZNSt13__atomic_baseImE21compare_exchange_weakERmmSt12memory_orderS2_.exit

cmpxchg.store_expected52.i:                       ; preds = %monotonic_fail48.i
  store i64 %77, ptr %11, align 8
  br label %cmpxchg.continue53.i

cmpxchg.continue53.i:                             ; preds = %cmpxchg.store_expected52.i, %monotonic_fail48.i
  %frombool54.i = zext i1 %78 to i8
  store i8 %frombool54.i, ptr %cmpxchg.bool.i, align 1
  br label %atomic.continue51.i

cmpxchg.store_expected55.i:                       ; preds = %acquire_fail49.i
  store i64 %82, ptr %11, align 8
  br label %cmpxchg.continue56.i

cmpxchg.continue56.i:                             ; preds = %cmpxchg.store_expected55.i, %acquire_fail49.i
  %frombool57.i = zext i1 %83 to i8
  store i8 %frombool57.i, ptr %cmpxchg.bool.i, align 1
  br label %atomic.continue51.i

cmpxchg.store_expected58.i:                       ; preds = %seqcst_fail50.i
  store i64 %87, ptr %11, align 8
  br label %cmpxchg.continue59.i

cmpxchg.continue59.i:                             ; preds = %cmpxchg.store_expected58.i, %seqcst_fail50.i
  %frombool60.i = zext i1 %88 to i8
  store i8 %frombool60.i, ptr %cmpxchg.bool.i, align 1
  br label %atomic.continue51.i

_ZNSt13__atomic_baseImE21compare_exchange_weakERmmSt12memory_orderS2_.exit: ; preds = %atomic.continue51.i, %atomic.continue38.i, %atomic.continue25.i, %atomic.continue12.i, %atomic.continue2.i
  %89 = load i8, ptr %cmpxchg.bool.i, align 1
  %tobool.i = trunc i8 %89 to i1
  %lnot = xor i1 %tobool.i, true
  br i1 %lnot, label %do.body, label %do.end, !llvm.loop !4

do.end:                                           ; preds = %_ZNSt13__atomic_baseImE21compare_exchange_weakERmmSt12memory_orderS2_.exit
  store i1 true, ptr %retval, align 1
  br label %return

return:                                           ; preds = %do.end, %if.then
  %90 = load i1, ptr %retval, align 1
  ret i1 %90
}