; Function Attrs: mustprogress nofree norecurse nounwind memory(argmem: readwrite) uwtable
define noundef zeroext i1 @_ZN9grpc_core21PartySyncUsingAtomics12RefIfNonZeroEv(ptr nocapture noundef nonnull align 8 dereferenceable(8) %this) local_unnamed_addr #3 align 2 personality ptr @__gxx_personality_v0 {
entry:
  %0 = load atomic i64, ptr %this monotonic, align 8
  br label %do.body

do.body:                                          ; preds = %do.cond, %entry
  %count.0 = phi i64 [ %0, %entry ], [ %3, %do.cond ]
  %cmp.not = icmp ne i64 %count.0, 0
  br i1 %cmp.not, label %do.cond, label %return

do.cond:                                          ; preds = %do.body
  %add = add i64 %count.0, 1099511627776
  %1 = cmpxchg weak ptr %this, i64 %count.0, i64 %add acq_rel monotonic, align 8
  %2 = extractvalue { i64, i1 } %1, 1
  %3 = extractvalue { i64, i1 } %1, 0
  br i1 %2, label %return, label %do.body, !llvm.loop !4

return:                                           ; preds = %do.cond, %do.body
  ret i1 %cmp.not
}